target datalayout = "e-m:e-p270:32:32-p271:32:32-p272:64:64-i64:64-i128:128-f80:128-n8:16:32:64-S128"
target triple = "x86_64-pc-linux-gnu"

@.str.92 = private unnamed_addr constant [7 x i8] c"PSQLRC\00", align 1
@.str.93 = private unnamed_addr constant [38 x i8] c"could not find own program executable\00", align 1
@.str.94 = private unnamed_addr constant [6 x i8] c"%s/%s\00", align 1
@.str.95 = private unnamed_addr constant [7 x i8] c"psqlrc\00", align 1
@.str.96 = private unnamed_addr constant [8 x i8] c".psqlrc\00", align 1

; Function Attrs: nounwind uwtable
define internal void @process_psqlrc(ptr noundef %0) #0 {
  %2 = alloca ptr, align 8
  %3 = alloca [1024 x i8], align 16
  %4 = alloca [1024 x i8], align 16
  %5 = alloca [1024 x i8], align 16
  %6 = alloca [1024 x i8], align 16
  %7 = alloca ptr, align 8
  %8 = alloca ptr, align 8
  store ptr %0, ptr %2, align 8
  call void @llvm.lifetime.start.p0(i64 1024, ptr %3) #8
  call void @llvm.lifetime.start.p0(i64 1024, ptr %4) #8
  call void @llvm.lifetime.start.p0(i64 1024, ptr %5) #8
  call void @llvm.lifetime.start.p0(i64 1024, ptr %6) #8
  call void @llvm.lifetime.start.p0(i64 8, ptr %7) #8
  %9 = call ptr @getenv(ptr noundef @.str.92) #8
  store ptr %9, ptr %7, align 8
  %10 = load ptr, ptr %2, align 8
  %11 = getelementptr inbounds [1024 x i8], ptr %5, i64 0, i64 0
  %12 = call i32 @find_my_exec(ptr noundef %10, ptr noundef %11)
  %13 = icmp slt i32 %12, 0
  br i1 %13, label %14, label %18

14:                                               ; preds = %1
  br label %15

15:                                               ; preds = %14
  call void (i32, i32, ptr, ...) @pg_log_generic(i32 noundef 4, i32 noundef 0, ptr noundef @.str.93)
  call void @exit(i32 noundef 1) #10
  unreachable

16:                                               ; No predecessors!
  br label %17

17:                                               ; preds = %16
  br label %18

18:                                               ; preds = %17, %1
  %19 = getelementptr inbounds [1024 x i8], ptr %5, i64 0, i64 0
  %20 = getelementptr inbounds [1024 x i8], ptr %6, i64 0, i64 0
  call void @get_etc_path(ptr noundef %19, ptr noundef %20)
  %21 = getelementptr inbounds [1024 x i8], ptr %4, i64 0, i64 0
  %22 = getelementptr inbounds [1024 x i8], ptr %6, i64 0, i64 0
  %23 = call i32 (ptr, i64, ptr, ...) @pg_snprintf(ptr noundef %21, i64 noundef 1024, ptr noundef @.str.94, ptr noundef %22, ptr noundef @.str.95)
  %24 = getelementptr inbounds [1024 x i8], ptr %4, i64 0, i64 0
  call void @process_psqlrc_file(ptr noundef %24)
  %25 = load ptr, ptr %7, align 8
  %26 = icmp ne ptr %25, null
  br i1 %26, label %27, label %35

27:                                               ; preds = %18
  %28 = load ptr, ptr %7, align 8
  %29 = call i64 @strlen(ptr noundef %28) #9
  %30 = icmp ugt i64 %29, 0
  br i1 %30, label %31, label %35

31:                                               ; preds = %27
  call void @llvm.lifetime.start.p0(i64 8, ptr %8) #8
  %32 = load ptr, ptr %7, align 8
  %33 = call ptr @pstrdup(ptr noundef %32)
  store ptr %33, ptr %8, align 8
  call void @expand_tilde(ptr noundef %8)
  %34 = load ptr, ptr %8, align 8
  call void @process_psqlrc_file(ptr noundef %34)
  call void @llvm.lifetime.end.p0(i64 8, ptr %8) #8
  br label %44

35:                                               ; preds = %27, %18
  %36 = getelementptr inbounds [1024 x i8], ptr %3, i64 0, i64 0
  %37 = call zeroext i1 @get_home_path(ptr noundef %36)
  br i1 %37, label %38, label %43

38:                                               ; preds = %35
  %39 = getelementptr inbounds [1024 x i8], ptr %4, i64 0, i64 0
  %40 = getelementptr inbounds [1024 x i8], ptr %3, i64 0, i64 0
  %41 = call i32 (ptr, i64, ptr, ...) @pg_snprintf(ptr noundef %39, i64 noundef 1024, ptr noundef @.str.94, ptr noundef %40, ptr noundef @.str.96)
  %42 = getelementptr inbounds [1024 x i8], ptr %4, i64 0, i64 0
  call void @process_psqlrc_file(ptr noundef %42)
  br label %43

43:                                               ; preds = %38, %35
  br label %44

44:                                               ; preds = %43, %31
  call void @llvm.lifetime.end.p0(i64 8, ptr %7) #8
  call void @llvm.lifetime.end.p0(i64 1024, ptr %6) #8
  call void @llvm.lifetime.end.p0(i64 1024, ptr %5) #8
  call void @llvm.lifetime.end.p0(i64 1024, ptr %4) #8
  call void @llvm.lifetime.end.p0(i64 1024, ptr %3) #8
  ret void
}