; Function Attrs: nounwind uwtable
define internal fastcc void @process_psqlrc(ptr noundef %0) unnamed_addr #0 {
  %2 = alloca [1024 x i8], align 16
  %3 = alloca [1024 x i8], align 16
  %4 = alloca [1024 x i8], align 16
  %5 = alloca [1024 x i8], align 16
  %6 = alloca ptr, align 8
  call void @llvm.lifetime.start.p0(i64 1024, ptr nonnull %2) #15
  call void @llvm.lifetime.start.p0(i64 1024, ptr nonnull %3) #15
  call void @llvm.lifetime.start.p0(i64 1024, ptr nonnull %4) #15
  call void @llvm.lifetime.start.p0(i64 1024, ptr nonnull %5) #15
  %7 = tail call ptr @getenv(ptr noundef nonnull @.str.92) #15
  %8 = call i32 @find_my_exec(ptr noundef %0, ptr noundef nonnull %4) #15
  %9 = icmp slt i32 %8, 0
  br i1 %9, label %10, label %11

10:                                               ; preds = %1
  call void (i32, i32, ptr, ...) @pg_log_generic(i32 noundef 4, i32 noundef 0, ptr noundef nonnull @.str.93) #15
  call void @exit(i32 noundef 1) #18
  unreachable

11:                                               ; preds = %1
  call void @get_etc_path(ptr noundef nonnull %4, ptr noundef nonnull %5) #15
  %12 = call i32 (ptr, i64, ptr, ...) @pg_snprintf(ptr noundef nonnull %3, i64 noundef 1024, ptr noundef nonnull @.str.94, ptr noundef nonnull %5, ptr noundef nonnull @.str.95) #15
  call fastcc void @process_psqlrc_file(ptr noundef nonnull %3)
  %.not = icmp eq ptr %7, null
  br i1 %.not, label %17, label %13

13:                                               ; preds = %11
  %char0 = load i8, ptr %7, align 1
  %.not4 = icmp eq i8 %char0, 0
  br i1 %.not4, label %17, label %14

14:                                               ; preds = %13
  call void @llvm.lifetime.start.p0(i64 8, ptr nonnull %6) #15
  %15 = call ptr @pstrdup(ptr noundef nonnull %7) #15
  store ptr %15, ptr %6, align 8
  call void @expand_tilde(ptr noundef nonnull %6) #15
  %16 = load ptr, ptr %6, align 8
  call fastcc void @process_psqlrc_file(ptr noundef %16)
  call void @llvm.lifetime.end.p0(i64 8, ptr nonnull %6) #15
  br label %21

17:                                               ; preds = %13, %11
  %18 = call zeroext i1 @get_home_path(ptr noundef nonnull %2) #15
  br i1 %18, label %19, label %21

19:                                               ; preds = %17
  %20 = call i32 (ptr, i64, ptr, ...) @pg_snprintf(ptr noundef nonnull %3, i64 noundef 1024, ptr noundef nonnull @.str.94, ptr noundef nonnull %2, ptr noundef nonnull @.str.96) #15
  call fastcc void @process_psqlrc_file(ptr noundef nonnull %3)
  br label %21

21:                                               ; preds = %17, %19, %14
  call void @llvm.lifetime.end.p0(i64 1024, ptr nonnull %5) #15
  call void @llvm.lifetime.end.p0(i64 1024, ptr nonnull %4) #15
  call void @llvm.lifetime.end.p0(i64 1024, ptr nonnull %3) #15
  call void @llvm.lifetime.end.p0(i64 1024, ptr nonnull %2) #15
  ret void
}